target datalayout = "e-m:e-p270:32:32-p271:32:32-p272:64:64-i64:64-i128:128-f80:128-n8:16:32:64-S128"
target triple = "x86_64-unknown-linux-gnu"

%struct.eq = type { ptr }
%struct.hash = type { ptr }
%class.table2map.250 = type { %class.core_hashtable.251 }
%class.core_hashtable.251 = type <{ %"struct.table2map<default_map_entry<int, int>, hash, eq>::entry_hash_proc", %"struct.table2map<default_map_entry<int, int>, hash, eq>::entry_eq_proc", ptr, i32, i32, i32, [4 x i8] }>
%"struct.table2map<default_map_entry<int, int>, hash, eq>::entry_hash_proc" = type { %struct.hash }
%"struct.table2map<default_map_entry<int, int>, hash, eq>::entry_eq_proc" = type { %struct.eq }
%struct._key_data.269 = type { i32, i32 }
%class.default_map_entry.267 = type { %class.default_hash_entry.268 }
%class.default_hash_entry.268 = type { i32, i32, %struct._key_data.269 }

; Function Attrs: mustprogress uwtable
define linkonce_odr hidden void @_Z12dealloc_vectI17default_map_entryIiiEEvPT_j(ptr noundef %ptr, i32 noundef %sz) #5 comdat {
entry:
  %ptr.addr = alloca ptr, align 8
  %sz.addr = alloca i32, align 4
  %curr = alloca ptr, align 8
  %i = alloca i32, align 4
  store ptr %ptr, ptr %ptr.addr, align 8
  store i32 %sz, ptr %sz.addr, align 4
  %0 = load ptr, ptr %ptr.addr, align 8
  %cmp = icmp eq ptr %0, null
  br i1 %cmp, label %if.then, label %if.end

if.then:                                          ; preds = %entry
  br label %return

if.end:                                           ; preds = %entry
  %1 = load ptr, ptr %ptr.addr, align 8
  store ptr %1, ptr %curr, align 8
  store i32 0, ptr %i, align 4
  br label %for.cond

for.cond:                                         ; preds = %for.inc, %if.end
  %2 = load i32, ptr %i, align 4
  %3 = load i32, ptr %sz.addr, align 4
  %cmp1 = icmp ult i32 %2, %3
  br i1 %cmp1, label %for.body, label %for.end

for.body:                                         ; preds = %for.cond
  br label %for.inc

for.inc:                                          ; preds = %for.body
  %4 = load i32, ptr %i, align 4
  %inc = add i32 %4, 1
  store i32 %inc, ptr %i, align 4
  %5 = load ptr, ptr %curr, align 8
  %incdec.ptr = getelementptr inbounds %class.default_map_entry.267, ptr %5, i32 1
  store ptr %incdec.ptr, ptr %curr, align 8
  br label %for.cond, !llvm.loop !30

for.end:                                          ; preds = %for.cond
  %6 = load ptr, ptr %ptr.addr, align 8
  call void @_ZN6memory10deallocateEPv(ptr noundef %6)
  br label %return

return:                                           ; preds = %for.end, %if.then
  ret void
}

; Function Attrs: mustprogress uwtable
define internal void @_ZN14core_hashtableI17default_map_entryIiiEN9table2mapIS1_ZN2bv6solver11flush_rootsEvE4hashZNS4_11flush_rootsEvE2eqE15entry_hash_procENS7_13entry_eq_procEE12delete_tableEv(ptr noundef nonnull align 8 dereferenceable(36) %this) #5 align 2 {
entry:
  %this.addr = alloca ptr, align 8
  store ptr %this, ptr %this.addr, align 8
  %this1 = load ptr, ptr %this.addr, align 8
  %m_table = getelementptr inbounds %class.core_hashtable.251, ptr %this1, i32 0, i32 2
  %0 = load ptr, ptr %m_table, align 8
  %m_capacity = getelementptr inbounds %class.core_hashtable.251, ptr %this1, i32 0, i32 3
  %1 = load i32, ptr %m_capacity, align 8
  call void @_Z12dealloc_vectI17default_map_entryIiiEEvPT_j(ptr noundef %0, i32 noundef %1)
  %m_table2 = getelementptr inbounds %class.core_hashtable.251, ptr %this1, i32 0, i32 2
  store ptr null, ptr %m_table2, align 8
  ret void
}

; Function Attrs: mustprogress nounwind uwtable
define internal void @_ZN14core_hashtableI17default_map_entryIiiEN9table2mapIS1_ZN2bv6solver11flush_rootsEvE4hashZNS4_11flush_rootsEvE2eqE15entry_hash_procENS7_13entry_eq_procEED2Ev(ptr noundef nonnull align 8 dereferenceable(36) %this) unnamed_addr #4 align 2 personality ptr @__gxx_personality_v0 {
entry:
  %this.addr = alloca ptr, align 8
  store ptr %this, ptr %this.addr, align 8
  %this1 = load ptr, ptr %this.addr, align 8
  invoke void @_ZN14core_hashtableI17default_map_entryIiiEN9table2mapIS1_ZN2bv6solver11flush_rootsEvE4hashZNS4_11flush_rootsEvE2eqE15entry_hash_procENS7_13entry_eq_procEE12delete_tableEv(ptr noundef nonnull align 8 dereferenceable(36) %this1)
          to label %invoke.cont unwind label %terminate.lpad

invoke.cont:                                      ; preds = %entry
  ret void

terminate.lpad:                                   ; preds = %entry
  %0 = landingpad { ptr, i32 }
          catch ptr null
  %1 = extractvalue { ptr, i32 } %0, 0
  call void @__clang_call_terminate(ptr %1) #14
  unreachable
}

; Function Attrs: mustprogress nounwind uwtable
define internal void @_ZN9table2mapI17default_map_entryIiiEZN2bv6solver11flush_rootsEvE4hashZNS3_11flush_rootsEvE2eqED2Ev(ptr noundef nonnull align 8 dereferenceable(40) %this) unnamed_addr #4 align 2 {
entry:
  %this.addr = alloca ptr, align 8
  store ptr %this, ptr %this.addr, align 8
  %this1 = load ptr, ptr %this.addr, align 8
  %m_table = getelementptr inbounds %class.table2map.250, ptr %this1, i32 0, i32 0
  call void @_ZN14core_hashtableI17default_map_entryIiiEN9table2mapIS1_ZN2bv6solver11flush_rootsEvE4hashZNS4_11flush_rootsEvE2eqE15entry_hash_procENS7_13entry_eq_procEED2Ev(ptr noundef nonnull align 8 dereferenceable(36) %m_table) #3
  ret void
}

; Function Attrs: mustprogress nounwind uwtable
define internal void @_ZN3mapIiiZN2bv6solver11flush_rootsEvE4hashZNS1_11flush_rootsEvE2eqED2Ev(ptr noundef nonnull align 8 dereferenceable(40) %this) unnamed_addr #4 align 2 {
entry:
  %this.addr = alloca ptr, align 8
  store ptr %this, ptr %this.addr, align 8
  %this1 = load ptr, ptr %this.addr, align 8
  call void @_ZN9table2mapI17default_map_entryIiiEZN2bv6solver11flush_rootsEvE4hashZNS3_11flush_rootsEvE2eqED2Ev(ptr noundef nonnull align 8 dereferenceable(40) %this1) #3
  ret void
}