; Function Attrs: mustprogress nounwind uwtable
define internal fastcc void @_ZN3mapIiiZN2bv6solver11flush_rootsEvE4hashZNS1_11flush_rootsEvE2eqED2Ev(ptr nocapture noundef nonnull align 8 dereferenceable(40) %this) unnamed_addr #5 align 2 personality ptr @__gxx_personality_v0 {
entry:
  %m_table.i.i.i = getelementptr inbounds i8, ptr %this, i64 16
  %0 = load ptr, ptr %m_table.i.i.i, align 8
  %cmp.i.i.i.i = icmp eq ptr %0, null
  br i1 %cmp.i.i.i.i, label %_ZN9table2mapI17default_map_entryIiiEZN2bv6solver11flush_rootsEvE4hashZNS3_11flush_rootsEvE2eqED2Ev.exit, label %for.cond.preheader.i.i.i.i

for.cond.preheader.i.i.i.i:                       ; preds = %entry
  invoke void @_ZN6memory10deallocateEPv(ptr noundef nonnull %0)
          to label %_ZN9table2mapI17default_map_entryIiiEZN2bv6solver11flush_rootsEvE4hashZNS3_11flush_rootsEvE2eqED2Ev.exit unwind label %terminate.lpad.i.i

terminate.lpad.i.i:                               ; preds = %for.cond.preheader.i.i.i.i
  %1 = landingpad { ptr, i32 }
          catch ptr null
  %2 = extractvalue { ptr, i32 } %1, 0
  tail call void @__clang_call_terminate(ptr %2) #23
  unreachable

_ZN9table2mapI17default_map_entryIiiEZN2bv6solver11flush_rootsEvE4hashZNS3_11flush_rootsEvE2eqED2Ev.exit: ; preds = %entry, %for.cond.preheader.i.i.i.i
  store ptr null, ptr %m_table.i.i.i, align 8
  ret void
}